target datalayout = "e-m:e-p270:32:32-p271:32:32-p272:64:64-i64:64-i128:128-f80:128-n8:16:32:64-S128"
target triple = "x86_64-unknown-linux-gnu"

%struct.dpll = type { i32, i32, i32, i32, i32, i32, i32, i32, i32 }

; Function Attrs: fn_ret_thunk_extern mustprogress nofree norecurse nosync nounwind null_pointer_is_valid willreturn memory(read, inaccessiblemem: none)
define internal fastcc zeroext i1 @intel_pll_is_valid(ptr nocapture noundef readonly %0, ptr nocapture noundef readonly %1, ptr nocapture noundef readonly %2) unnamed_addr #8 align 16 {
  %4 = load i32, ptr %2, align 4
  %5 = getelementptr inbounds i8, ptr %1, i64 16
  %6 = load i32, ptr %5, align 4
  %7 = icmp slt i32 %4, %6
  br i1 %7, label %102, label %8

8:                                                ; preds = %3
  %9 = getelementptr inbounds i8, ptr %1, i64 20
  %10 = load i32, ptr %9, align 4
  %11 = icmp slt i32 %10, %4
  br i1 %11, label %102, label %12

12:                                               ; preds = %8
  %13 = getelementptr inbounds i8, ptr %2, i64 12
  %14 = load i32, ptr %13, align 4
  %15 = getelementptr inbounds i8, ptr %1, i64 56
  %16 = load i32, ptr %15, align 4
  %17 = icmp slt i32 %14, %16
  br i1 %17, label %102, label %18

18:                                               ; preds = %12
  %19 = getelementptr inbounds i8, ptr %1, i64 60
  %20 = load i32, ptr %19, align 4
  %21 = icmp slt i32 %20, %14
  br i1 %21, label %102, label %22

22:                                               ; preds = %18
  %23 = getelementptr inbounds i8, ptr %2, i64 8
  %24 = load i32, ptr %23, align 4
  %25 = getelementptr inbounds i8, ptr %1, i64 40
  %26 = load i32, ptr %25, align 4
  %27 = icmp slt i32 %24, %26
  br i1 %27, label %102, label %28

28:                                               ; preds = %22
  %29 = getelementptr inbounds i8, ptr %1, i64 44
  %30 = load i32, ptr %29, align 4
  %31 = icmp slt i32 %30, %24
  br i1 %31, label %102, label %32

32:                                               ; preds = %28
  %33 = getelementptr inbounds i8, ptr %2, i64 4
  %34 = load i32, ptr %33, align 4
  %35 = getelementptr inbounds i8, ptr %1, i64 32
  %36 = load i32, ptr %35, align 4
  %37 = icmp slt i32 %34, %36
  br i1 %37, label %102, label %38

38:                                               ; preds = %32
  %39 = getelementptr inbounds i8, ptr %1, i64 36
  %40 = load i32, ptr %39, align 4
  %41 = icmp slt i32 %40, %34
  br i1 %41, label %102, label %42

42:                                               ; preds = %38
  %43 = getelementptr inbounds i8, ptr %0, i64 7184
  %44 = load i32, ptr %43, align 4
  %45 = and i32 %44, 8192
  %46 = icmp eq i32 %45, 0
  br i1 %46, label %47, label %56

47:                                               ; preds = %42
  %48 = getelementptr inbounds i8, ptr %0, i64 7168
  %49 = load ptr, ptr %48, align 8
  %50 = getelementptr inbounds i8, ptr %49, i64 28
  %51 = load i64, ptr %50, align 4
  %52 = and i64 %51, 2
  %53 = icmp ne i64 %52, 0
  %54 = icmp sgt i32 %34, %24
  %55 = or i1 %54, %53
  br i1 %55, label %56, label %102

56:                                               ; preds = %47, %42
  %57 = getelementptr inbounds i8, ptr %0, i64 7168
  %58 = load ptr, ptr %57, align 8
  %59 = getelementptr inbounds i8, ptr %58, i64 28
  %60 = load i64, ptr %59, align 4
  %61 = and i64 %60, 2
  %62 = icmp eq i64 %61, 0
  br i1 %62, label %63, label %83

63:                                               ; preds = %56
  %64 = getelementptr inbounds i8, ptr %2, i64 32
  %65 = load i32, ptr %64, align 4
  %66 = getelementptr inbounds i8, ptr %1, i64 48
  %67 = load i32, ptr %66, align 4
  %68 = icmp slt i32 %65, %67
  br i1 %68, label %102, label %69

69:                                               ; preds = %63
  %70 = getelementptr inbounds i8, ptr %1, i64 52
  %71 = load i32, ptr %70, align 4
  %72 = icmp slt i32 %71, %65
  br i1 %72, label %102, label %73

73:                                               ; preds = %69
  %74 = getelementptr inbounds i8, ptr %2, i64 28
  %75 = load i32, ptr %74, align 4
  %76 = getelementptr inbounds i8, ptr %1, i64 24
  %77 = load i32, ptr %76, align 4
  %78 = icmp slt i32 %75, %77
  br i1 %78, label %102, label %79

79:                                               ; preds = %73
  %80 = getelementptr inbounds i8, ptr %1, i64 28
  %81 = load i32, ptr %80, align 4
  %82 = icmp slt i32 %81, %75
  br i1 %82, label %102, label %83

83:                                               ; preds = %79, %56
  %84 = getelementptr inbounds i8, ptr %2, i64 24
  %85 = load i32, ptr %84, align 4
  %86 = getelementptr inbounds i8, ptr %1, i64 8
  %87 = load i32, ptr %86, align 4
  %88 = icmp slt i32 %85, %87
  br i1 %88, label %102, label %89

89:                                               ; preds = %83
  %90 = getelementptr inbounds i8, ptr %1, i64 12
  %91 = load i32, ptr %90, align 4
  %92 = icmp slt i32 %91, %85
  br i1 %92, label %102, label %93

93:                                               ; preds = %89
  %94 = getelementptr inbounds i8, ptr %2, i64 20
  %95 = load i32, ptr %94, align 4
  %96 = load i32, ptr %1, align 4
  %97 = icmp slt i32 %95, %96
  br i1 %97, label %102, label %98

98:                                               ; preds = %93
  %99 = getelementptr inbounds i8, ptr %1, i64 4
  %100 = load i32, ptr %99, align 4
  %101 = icmp sge i32 %100, %95
  br label %102

102:                                              ; preds = %98, %93, %89, %83, %79, %73, %69, %63, %47, %38, %32, %28, %22, %18, %12, %8, %3
  %103 = phi i1 [ false, %8 ], [ false, %3 ], [ false, %18 ], [ false, %12 ], [ false, %28 ], [ false, %22 ], [ false, %38 ], [ false, %32 ], [ false, %69 ], [ false, %63 ], [ false, %79 ], [ false, %73 ], [ false, %89 ], [ false, %83 ], [ false, %93 ], [ %101, %98 ], [ false, %47 ]
  ret i1 %103
}

; Function Attrs: fn_ret_thunk_extern nounwind null_pointer_is_valid
define internal fastcc zeroext i1 @i9xx_find_best_dpll(ptr nocapture noundef readonly %0, ptr nocapture noundef readonly %1, i32 noundef %2, i32 noundef %3, ptr nocapture noundef writeonly %4) unnamed_addr #2 align 16 {
  %6 = alloca %struct.dpll, align 4
  %7 = load ptr, ptr %1, align 8
  %8 = load ptr, ptr %7, align 8
  call void @llvm.lifetime.start.p0(i64 36, ptr nonnull %6) #12
  call void @llvm.memset.p0.i64(ptr noundef nonnull align 4 dereferenceable(36) %6, i8 0, i64 36, i1 false), !annotation !6
  tail call void @llvm.memset.p0.i64(ptr noundef align 4 dereferenceable(36) %4, i8 0, i64 36, i1 false)
  %9 = getelementptr inbounds i8, ptr %1, i64 872
  %10 = load i32, ptr %9, align 8
  %11 = and i32 %10, 16
  %12 = icmp eq i32 %11, 0
  br i1 %12, label %18, label %13

13:                                               ; preds = %5
  %14 = load ptr, ptr %1, align 8
  %15 = load ptr, ptr %14, align 8
  %16 = tail call zeroext i1 @intel_is_dual_link_lvds(ptr noundef %15) #12
  %17 = select i1 %16, i64 72, i64 68
  br label %23

18:                                               ; preds = %5
  %19 = getelementptr inbounds i8, ptr %0, i64 64
  %20 = load i32, ptr %19, align 4
  %21 = icmp sgt i32 %20, %2
  %22 = select i1 %21, i64 68, i64 72
  br label %23

23:                                               ; preds = %18, %13
  %24 = phi i64 [ %17, %13 ], [ %22, %18 ]
  %25 = getelementptr inbounds i8, ptr %0, i64 %24
  %26 = load i32, ptr %25, align 4
  %27 = getelementptr inbounds i8, ptr %6, i64 16
  store i32 %26, ptr %27, align 4
  %28 = getelementptr inbounds i8, ptr %0, i64 32
  %29 = load i32, ptr %28, align 4
  %30 = getelementptr inbounds i8, ptr %6, i64 4
  %31 = getelementptr inbounds i8, ptr %0, i64 36
  store i32 %29, ptr %30, align 4
  %32 = load i32, ptr %31, align 4
  %33 = icmp sgt i32 %29, %32
  br i1 %33, label %130, label %34

34:                                               ; preds = %23
  %35 = getelementptr inbounds i8, ptr %0, i64 40
  %36 = getelementptr inbounds i8, ptr %6, i64 8
  %37 = getelementptr inbounds i8, ptr %0, i64 44
  %38 = getelementptr inbounds i8, ptr %0, i64 16
  %39 = getelementptr inbounds i8, ptr %0, i64 20
  %40 = getelementptr inbounds i8, ptr %0, i64 56
  %41 = getelementptr inbounds i8, ptr %6, i64 12
  %42 = getelementptr inbounds i8, ptr %0, i64 60
  %43 = getelementptr inbounds i8, ptr %6, i64 28
  %44 = getelementptr inbounds i8, ptr %6, i64 32
  %45 = getelementptr inbounds i8, ptr %6, i64 24
  %46 = getelementptr inbounds i8, ptr %6, i64 20
  br label %47

47:                                               ; preds = %125, %34
  %48 = phi i32 [ %2, %34 ], [ %126, %125 ]
  %49 = phi i32 [ %29, %34 ], [ %127, %125 ]
  %50 = load i32, ptr %35, align 4
  store i32 %50, ptr %36, align 4
  %51 = load i32, ptr %37, align 4
  %52 = icmp sle i32 %50, %51
  %53 = icmp slt i32 %50, %49
  %54 = and i1 %53, %52
  br i1 %54, label %55, label %125

55:                                               ; preds = %47
  %56 = mul i32 %49, 5
  %57 = add i32 %56, 12
  br label %58

58:                                               ; preds = %118, %55
  %59 = phi i32 [ %48, %55 ], [ %119, %118 ]
  %60 = phi i32 [ %50, %55 ], [ %120, %118 ]
  %61 = load i32, ptr %38, align 4
  store i32 %61, ptr %6, align 4
  %62 = load i32, ptr %39, align 4
  %63 = icmp sgt i32 %61, %62
  br i1 %63, label %118, label %64

64:                                               ; preds = %58
  %65 = add i32 %57, %60
  %66 = mul i32 %65, %3
  %67 = icmp sgt i32 %66, 0
  br label %68

68:                                               ; preds = %113, %64
  %69 = phi i32 [ %59, %64 ], [ %114, %113 ]
  %70 = phi i32 [ %61, %64 ], [ %115, %113 ]
  %71 = load i32, ptr %40, align 4
  store i32 %71, ptr %41, align 4
  %72 = load i32, ptr %42, align 4
  %73 = icmp sgt i32 %71, %72
  br i1 %73, label %113, label %74

74:                                               ; preds = %68
  %75 = add i32 %70, 2
  %76 = icmp eq i32 %75, 0
  %77 = icmp slt i32 %75, 1
  %78 = xor i1 %67, %77
  %79 = freeze i1 %78
  %80 = select i1 %79, i32 2, i32 -2
  br label %81

81:                                               ; preds = %108, %74
  %82 = phi i32 [ %69, %74 ], [ %109, %108 ]
  %83 = phi i32 [ %71, %74 ], [ %110, %108 ]
  store i32 %65, ptr %43, align 4
  %84 = mul i32 %83, %26
  store i32 %84, ptr %44, align 4
  br i1 %76, label %89, label %85

85:                                               ; preds = %81
  %86 = sdiv i32 %75, %80
  %87 = add i32 %86, %66
  %88 = sdiv i32 %87, %75
  br label %89

89:                                               ; preds = %85, %81
  %90 = phi i32 [ %88, %85 ], [ 0, %81 ]
  store i32 %90, ptr %45, align 4
  %91 = icmp eq i32 %84, 0
  br i1 %91, label %100, label %92

92:                                               ; preds = %89
  %93 = icmp sgt i32 %90, 0
  %94 = icmp slt i32 %84, 1
  %95 = xor i1 %94, %93
  %96 = select i1 %95, i32 2, i32 -2
  %97 = sdiv i32 %84, %96
  %98 = add i32 %97, %90
  %99 = sdiv i32 %98, %84
  br label %100

100:                                              ; preds = %92, %89
  %101 = phi i32 [ %99, %92 ], [ 0, %89 ]
  store i32 %101, ptr %46, align 4
  %102 = call fastcc zeroext i1 @intel_pll_is_valid(ptr noundef %8, ptr noundef %0, ptr noundef nonnull %6)
  br i1 %102, label %103, label %108

103:                                              ; preds = %100
  %104 = sub i32 %101, %2
  %105 = tail call i32 @llvm.abs.i32(i32 %104, i1 false)
  %106 = icmp slt i32 %105, %82
  br i1 %106, label %107, label %108

107:                                              ; preds = %103
  call void @llvm.memcpy.p0.p0.i64(ptr noundef align 4 dereferenceable(36) %4, ptr noundef nonnull align 4 dereferenceable(36) %6, i64 36, i1 false)
  br label %108

108:                                              ; preds = %107, %103, %100
  %109 = phi i32 [ %82, %100 ], [ %105, %107 ], [ %82, %103 ]
  %110 = add i32 %83, 1
  store i32 %110, ptr %41, align 4
  %111 = load i32, ptr %42, align 4
  %112 = icmp sgt i32 %110, %111
  br i1 %112, label %113, label %81, !llvm.loop !68

113:                                              ; preds = %108, %68
  %114 = phi i32 [ %69, %68 ], [ %109, %108 ]
  %115 = add i32 %70, 1
  store i32 %115, ptr %6, align 4
  %116 = load i32, ptr %39, align 4
  %117 = icmp sgt i32 %115, %116
  br i1 %117, label %118, label %68, !llvm.loop !69

118:                                              ; preds = %113, %58
  %119 = phi i32 [ %59, %58 ], [ %114, %113 ]
  %120 = add nsw i32 %60, 1
  store i32 %120, ptr %36, align 4
  %121 = load i32, ptr %37, align 4
  %122 = icmp slt i32 %60, %121
  %123 = icmp slt i32 %120, %49
  %124 = and i1 %123, %122
  br i1 %124, label %58, label %125, !llvm.loop !70

125:                                              ; preds = %118, %47
  %126 = phi i32 [ %48, %47 ], [ %119, %118 ]
  %127 = add i32 %49, 1
  store i32 %127, ptr %30, align 4
  %128 = load i32, ptr %31, align 4
  %129 = icmp sgt i32 %127, %128
  br i1 %129, label %130, label %47, !llvm.loop !71

130:                                              ; preds = %125, %23
  %131 = phi i32 [ %2, %23 ], [ %126, %125 ]
  %132 = icmp ne i32 %131, %2
  call void @llvm.lifetime.end.p0(i64 36, ptr nonnull %6) #12
  ret i1 %132
}