; Function Attrs: fn_ret_thunk_extern nounwind null_pointer_is_valid
define internal fastcc zeroext i1 @i9xx_find_best_dpll(ptr nocapture noundef readonly %0, ptr nocapture noundef readonly %1, i32 noundef %2, i32 noundef %3, ptr nocapture noundef writeonly %4) unnamed_addr #2 align 16 {
  %6 = load ptr, ptr %1, align 8
  %7 = load ptr, ptr %6, align 8
  tail call void @llvm.memset.p0.i64(ptr noundef align 4 dereferenceable(36) %4, i8 0, i64 36, i1 false)
  %8 = getelementptr inbounds i8, ptr %1, i64 872
  %9 = load i32, ptr %8, align 8
  %10 = and i32 %9, 16
  %11 = icmp eq i32 %10, 0
  br i1 %11, label %17, label %12

12:                                               ; preds = %5
  %13 = load ptr, ptr %1, align 8
  %14 = load ptr, ptr %13, align 8
  %15 = tail call zeroext i1 @intel_is_dual_link_lvds(ptr noundef %14) #11
  %16 = select i1 %15, i64 72, i64 68
  br label %22

17:                                               ; preds = %5
  %18 = getelementptr inbounds i8, ptr %0, i64 64
  %19 = load i32, ptr %18, align 4
  %20 = icmp sgt i32 %19, %2
  %21 = select i1 %20, i64 68, i64 72
  br label %22

22:                                               ; preds = %17, %12
  %23 = phi i64 [ %16, %12 ], [ %21, %17 ]
  %24 = getelementptr inbounds i8, ptr %0, i64 %23
  %25 = load i32, ptr %24, align 4
  %26 = getelementptr inbounds i8, ptr %0, i64 32
  %27 = load i32, ptr %26, align 4
  %28 = getelementptr inbounds i8, ptr %0, i64 36
  %29 = load i32, ptr %28, align 4
  %30 = icmp sgt i32 %27, %29
  br i1 %30, label %.loopexit22, label %31

31:                                               ; preds = %22
  %32 = getelementptr inbounds i8, ptr %0, i64 40
  %33 = getelementptr inbounds i8, ptr %0, i64 44
  %34 = getelementptr inbounds i8, ptr %0, i64 16
  %35 = getelementptr inbounds i8, ptr %0, i64 20
  %36 = getelementptr inbounds i8, ptr %0, i64 56
  %37 = getelementptr inbounds i8, ptr %0, i64 60
  %38 = getelementptr inbounds i8, ptr %7, i64 7168
  %39 = getelementptr inbounds i8, ptr %0, i64 48
  %40 = getelementptr inbounds i8, ptr %0, i64 52
  %41 = getelementptr inbounds i8, ptr %0, i64 24
  %42 = getelementptr inbounds i8, ptr %0, i64 28
  %43 = getelementptr inbounds i8, ptr %0, i64 8
  %44 = getelementptr inbounds i8, ptr %0, i64 12
  %45 = getelementptr inbounds i8, ptr %0, i64 4
  %.sroa.7.0..sroa_idx = getelementptr inbounds i8, ptr %4, i64 4
  %.sroa.10.0..sroa_idx = getelementptr inbounds i8, ptr %4, i64 8
  %.sroa.13.0..sroa_idx = getelementptr inbounds i8, ptr %4, i64 12
  %.sroa.16.0..sroa_idx = getelementptr inbounds i8, ptr %4, i64 16
  %.sroa.17.0..sroa_idx = getelementptr inbounds i8, ptr %4, i64 20
  %.sroa.19.0..sroa_idx = getelementptr inbounds i8, ptr %4, i64 24
  %.sroa.21.0..sroa_idx = getelementptr inbounds i8, ptr %4, i64 28
  %.sroa.23.0..sroa_idx = getelementptr inbounds i8, ptr %4, i64 32
  %.pre = load i32, ptr %33, align 4
  br label %46

46:                                               ; preds = %.loopexit21, %31
  %47 = phi i32 [ %29, %31 ], [ %179, %.loopexit21 ]
  %48 = phi i32 [ %.pre, %31 ], [ %180, %.loopexit21 ]
  %49 = phi i32 [ %.pre, %31 ], [ %181, %.loopexit21 ]
  %.sroa.7.0 = phi i32 [ %27, %31 ], [ %183, %.loopexit21 ]
  %50 = phi i32 [ %2, %31 ], [ %182, %.loopexit21 ]
  %51 = load i32, ptr %32, align 4
  %52 = icmp sle i32 %51, %49
  %53 = icmp slt i32 %51, %.sroa.7.0
  %54 = and i1 %53, %52
  br i1 %54, label %55, label %.loopexit21

55:                                               ; preds = %46
  %56 = mul i32 %.sroa.7.0, 5
  %57 = add i32 %56, 12
  %58 = load i32, ptr %34, align 4
  %59 = load i32, ptr %35, align 4
  %60 = icmp sgt i32 %58, %59
  br i1 %60, label %.loopexit21, label %.split26

.split26:                                         ; preds = %55, %.loopexit20
  %61 = phi i32 [ %171, %.loopexit20 ], [ %48, %55 ]
  %62 = phi i32 [ %172, %.loopexit20 ], [ %59, %55 ]
  %63 = phi i32 [ %173, %.loopexit20 ], [ %59, %55 ]
  %.sroa.10.0 = phi i32 [ %175, %.loopexit20 ], [ %51, %55 ]
  %64 = phi i32 [ %174, %.loopexit20 ], [ %50, %55 ]
  %65 = load i32, ptr %34, align 4
  %66 = icmp sgt i32 %65, %63
  br i1 %66, label %.loopexit20, label %67

67:                                               ; preds = %.split26
  %68 = add i32 %57, %.sroa.10.0
  %69 = mul i32 %68, %3
  %70 = icmp sgt i32 %69, 0
  %71 = load i32, ptr %36, align 4
  %72 = load i32, ptr %37, align 4
  %73 = icmp sgt i32 %71, %72
  br i1 %73, label %.loopexit20, label %.split

.split:                                           ; preds = %67, %.loopexit
  %74 = phi i32 [ %165, %.loopexit ], [ %62, %67 ]
  %75 = phi i32 [ %166, %.loopexit ], [ %72, %67 ]
  %76 = phi i32 [ %167, %.loopexit ], [ %72, %67 ]
  %.sroa.0.0 = phi i32 [ %169, %.loopexit ], [ %65, %67 ]
  %77 = phi i32 [ %168, %.loopexit ], [ %64, %67 ]
  %78 = load i32, ptr %36, align 4
  %79 = icmp sgt i32 %78, %76
  br i1 %79, label %.loopexit, label %80

80:                                               ; preds = %.split
  %81 = add i32 %.sroa.0.0, 2
  %82 = icmp eq i32 %81, 0
  %83 = icmp slt i32 %81, 1
  %84 = xor i1 %70, %83
  %85 = freeze i1 %84
  %86 = select i1 %85, i32 2, i32 -2
  br label %87

87:                                               ; preds = %intel_pll_is_valid.exit.thread, %80
  %88 = phi i32 [ %75, %80 ], [ %161, %intel_pll_is_valid.exit.thread ]
  %89 = phi i32 [ %76, %80 ], [ %161, %intel_pll_is_valid.exit.thread ]
  %.sroa.13.0 = phi i32 [ %78, %80 ], [ %163, %intel_pll_is_valid.exit.thread ]
  %90 = phi i32 [ %77, %80 ], [ %162, %intel_pll_is_valid.exit.thread ]
  %91 = mul i32 %.sroa.13.0, %25
  br i1 %82, label %96, label %92

92:                                               ; preds = %87
  %93 = sdiv i32 %81, %86
  %94 = add i32 %93, %69
  %95 = sdiv i32 %94, %81
  br label %96

96:                                               ; preds = %92, %87
  %97 = phi i32 [ %95, %92 ], [ 0, %87 ]
  %98 = icmp eq i32 %91, 0
  br i1 %98, label %107, label %99

99:                                               ; preds = %96
  %100 = icmp sgt i32 %97, 0
  %101 = icmp slt i32 %91, 1
  %102 = xor i1 %101, %100
  %103 = select i1 %102, i32 2, i32 -2
  %104 = sdiv i32 %91, %103
  %105 = add i32 %104, %97
  %106 = sdiv i32 %105, %91
  br label %107

107:                                              ; preds = %99, %96
  %108 = phi i32 [ %106, %99 ], [ 0, %96 ]
  %109 = load i32, ptr %34, align 4
  %110 = icmp slt i32 %.sroa.0.0, %109
  br i1 %110, label %intel_pll_is_valid.exit.thread, label %111

111:                                              ; preds = %107
  %112 = load i32, ptr %35, align 4
  %113 = icmp slt i32 %112, %.sroa.0.0
  br i1 %113, label %intel_pll_is_valid.exit.thread, label %114

114:                                              ; preds = %111
  %115 = load i32, ptr %36, align 4
  %116 = icmp slt i32 %.sroa.13.0, %115
  %117 = icmp slt i32 %89, %.sroa.13.0
  %or.cond = or i1 %116, %117
  br i1 %or.cond, label %intel_pll_is_valid.exit.thread, label %118

118:                                              ; preds = %114
  %119 = load i32, ptr %32, align 4
  %120 = icmp slt i32 %.sroa.10.0, %119
  br i1 %120, label %intel_pll_is_valid.exit.thread, label %121

121:                                              ; preds = %118
  %122 = load i32, ptr %33, align 4
  %123 = icmp slt i32 %122, %.sroa.10.0
  br i1 %123, label %intel_pll_is_valid.exit.thread, label %124

124:                                              ; preds = %121
  %125 = load i32, ptr %26, align 4
  %126 = icmp slt i32 %.sroa.7.0, %125
  br i1 %126, label %intel_pll_is_valid.exit.thread, label %127

127:                                              ; preds = %124
  %128 = load i32, ptr %28, align 4
  %129 = icmp slt i32 %128, %.sroa.7.0
  br i1 %129, label %intel_pll_is_valid.exit.thread, label %._crit_edge.i

._crit_edge.i:                                    ; preds = %127
  %130 = load ptr, ptr %38, align 8
  %131 = getelementptr inbounds i8, ptr %130, i64 28
  %132 = load i64, ptr %131, align 4
  %.pre-phi = and i64 %132, 2
  %133 = icmp eq i64 %.pre-phi, 0
  br i1 %133, label %134, label %146

134:                                              ; preds = %._crit_edge.i
  %135 = load i32, ptr %39, align 4
  %136 = icmp slt i32 %91, %135
  br i1 %136, label %intel_pll_is_valid.exit.thread, label %137

137:                                              ; preds = %134
  %138 = load i32, ptr %40, align 4
  %139 = icmp slt i32 %138, %91
  br i1 %139, label %intel_pll_is_valid.exit.thread, label %140

140:                                              ; preds = %137
  %141 = load i32, ptr %41, align 4
  %142 = icmp slt i32 %68, %141
  br i1 %142, label %intel_pll_is_valid.exit.thread, label %143

143:                                              ; preds = %140
  %144 = load i32, ptr %42, align 4
  %145 = icmp slt i32 %144, %68
  br i1 %145, label %intel_pll_is_valid.exit.thread, label %146

146:                                              ; preds = %143, %._crit_edge.i
  %147 = load i32, ptr %43, align 4
  %148 = icmp slt i32 %97, %147
  br i1 %148, label %intel_pll_is_valid.exit.thread, label %149

149:                                              ; preds = %146
  %150 = load i32, ptr %44, align 4
  %151 = icmp slt i32 %150, %97
  br i1 %151, label %intel_pll_is_valid.exit.thread, label %152

152:                                              ; preds = %149
  %153 = load i32, ptr %0, align 4
  %154 = icmp slt i32 %108, %153
  br i1 %154, label %intel_pll_is_valid.exit.thread, label %intel_pll_is_valid.exit

intel_pll_is_valid.exit:                          ; preds = %152
  %155 = load i32, ptr %45, align 4
  %.not = icmp slt i32 %155, %108
  br i1 %.not, label %intel_pll_is_valid.exit.thread, label %156

156:                                              ; preds = %intel_pll_is_valid.exit
  %157 = sub i32 %108, %2
  %158 = tail call i32 @llvm.abs.i32(i32 %157, i1 false)
  %159 = icmp slt i32 %158, %90
  br i1 %159, label %160, label %intel_pll_is_valid.exit.thread

160:                                              ; preds = %156
  store i32 %.sroa.0.0, ptr %4, align 4
  store i32 %.sroa.7.0, ptr %.sroa.7.0..sroa_idx, align 4
  store i32 %.sroa.10.0, ptr %.sroa.10.0..sroa_idx, align 4
  store i32 %.sroa.13.0, ptr %.sroa.13.0..sroa_idx, align 4
  store i32 %25, ptr %.sroa.16.0..sroa_idx, align 4
  store i32 %108, ptr %.sroa.17.0..sroa_idx, align 4
  store i32 %97, ptr %.sroa.19.0..sroa_idx, align 4
  store i32 %68, ptr %.sroa.21.0..sroa_idx, align 4
  store i32 %91, ptr %.sroa.23.0..sroa_idx, align 4
  %.pre33 = load i32, ptr %37, align 4
  br label %intel_pll_is_valid.exit.thread

intel_pll_is_valid.exit.thread:                   ; preds = %152, %146, %149, %140, %143, %134, %137, %124, %127, %118, %121, %114, %107, %111, %160, %156, %intel_pll_is_valid.exit
  %161 = phi i32 [ %88, %intel_pll_is_valid.exit ], [ %.pre33, %160 ], [ %88, %156 ], [ %88, %111 ], [ %88, %107 ], [ %88, %114 ], [ %88, %121 ], [ %88, %118 ], [ %88, %127 ], [ %88, %124 ], [ %88, %137 ], [ %88, %134 ], [ %88, %143 ], [ %88, %140 ], [ %88, %149 ], [ %88, %146 ], [ %88, %152 ]
  %162 = phi i32 [ %90, %intel_pll_is_valid.exit ], [ %158, %160 ], [ %90, %156 ], [ %90, %111 ], [ %90, %107 ], [ %90, %114 ], [ %90, %121 ], [ %90, %118 ], [ %90, %127 ], [ %90, %124 ], [ %90, %137 ], [ %90, %134 ], [ %90, %143 ], [ %90, %140 ], [ %90, %149 ], [ %90, %146 ], [ %90, %152 ]
  %163 = add i32 %.sroa.13.0, 1
  %164 = icmp sgt i32 %163, %161
  br i1 %164, label %.loopexit.loopexit, label %87, !llvm.loop !69

.loopexit.loopexit:                               ; preds = %intel_pll_is_valid.exit.thread
  %.pre34 = load i32, ptr %35, align 4
  br label %.loopexit

.loopexit:                                        ; preds = %.loopexit.loopexit, %.split
  %165 = phi i32 [ %74, %.split ], [ %.pre34, %.loopexit.loopexit ]
  %166 = phi i32 [ %75, %.split ], [ %161, %.loopexit.loopexit ]
  %167 = phi i32 [ %76, %.split ], [ %161, %.loopexit.loopexit ]
  %168 = phi i32 [ %77, %.split ], [ %162, %.loopexit.loopexit ]
  %169 = add i32 %.sroa.0.0, 1
  %170 = icmp sgt i32 %169, %165
  br i1 %170, label %.loopexit20.loopexit28, label %.split, !llvm.loop !70

.loopexit20.loopexit28:                           ; preds = %.loopexit
  %.pre35 = load i32, ptr %33, align 4
  br label %.loopexit20

.loopexit20:                                      ; preds = %67, %.loopexit20.loopexit28, %.split26
  %171 = phi i32 [ %61, %.split26 ], [ %.pre35, %.loopexit20.loopexit28 ], [ %61, %67 ]
  %172 = phi i32 [ %62, %.split26 ], [ %165, %.loopexit20.loopexit28 ], [ %62, %67 ]
  %173 = phi i32 [ %63, %.split26 ], [ %165, %.loopexit20.loopexit28 ], [ %63, %67 ]
  %174 = phi i32 [ %64, %.split26 ], [ %168, %.loopexit20.loopexit28 ], [ %64, %67 ]
  %175 = add nsw i32 %.sroa.10.0, 1
  %176 = icmp slt i32 %.sroa.10.0, %171
  %177 = icmp slt i32 %175, %.sroa.7.0
  %178 = and i1 %177, %176
  br i1 %178, label %.split26, label %.loopexit21.loopexit29, !llvm.loop !71

.loopexit21.loopexit29:                           ; preds = %.loopexit20
  %.pre36 = load i32, ptr %28, align 4
  br label %.loopexit21

.loopexit21:                                      ; preds = %55, %.loopexit21.loopexit29, %46
  %179 = phi i32 [ %47, %46 ], [ %.pre36, %.loopexit21.loopexit29 ], [ %47, %55 ]
  %180 = phi i32 [ %48, %46 ], [ %171, %.loopexit21.loopexit29 ], [ %48, %55 ]
  %181 = phi i32 [ %49, %46 ], [ %171, %.loopexit21.loopexit29 ], [ %49, %55 ]
  %182 = phi i32 [ %50, %46 ], [ %174, %.loopexit21.loopexit29 ], [ %50, %55 ]
  %183 = add i32 %.sroa.7.0, 1
  %184 = icmp sgt i32 %183, %179
  br i1 %184, label %.loopexit22, label %46, !llvm.loop !72

.loopexit22:                                      ; preds = %.loopexit21, %22
  %185 = phi i32 [ %2, %22 ], [ %182, %.loopexit21 ]
  %186 = icmp ne i32 %185, %2
  ret i1 %186
}